; Function Attrs: mustprogress nounwind uwtable
define internal noundef ptr @_ZL19thread_native_entryP6Thread(ptr noundef nonnull %0) #0 {
  tail call void @_ZN6Thread26record_stack_base_and_sizeEv(ptr noundef nonnull align 8 dereferenceable(888) %0) #26
  tail call void @_ZN6Thread25initialize_thread_currentEv(ptr noundef nonnull align 8 dereferenceable(888) %0) #26
  %2 = getelementptr inbounds i8, ptr %0, i64 792
  %3 = load ptr, ptr %2, align 8
  %4 = getelementptr inbounds i8, ptr %3, i64 184
  %5 = load ptr, ptr %4, align 8
  %6 = tail call i64 (i64, ...) @syscall(i64 noundef 186) #26
  %7 = trunc i64 %6 to i32
  %8 = getelementptr inbounds i8, ptr %3, i64 192
  store i32 %7, ptr %8, align 8
  %9 = load i8, ptr @UseNUMA, align 1
  %10 = trunc i8 %9 to i1
  br i1 %10, label %11, label %27

11:                                               ; preds = %1
  %12 = load ptr, ptr @_ZN2os5Linux13_sched_getcpuE, align 8
  %.not.i.i = icmp eq ptr %12, null
  br i1 %.not.i.i, label %_ZN2os5Linux12sched_getcpuEv.exit.thread.i, label %_ZN2os5Linux12sched_getcpuEv.exit.i

_ZN2os5Linux12sched_getcpuEv.exit.i:              ; preds = %11
  %13 = tail call noundef i32 %12() #26
  %.not.i = icmp eq i32 %13, -1
  br i1 %.not.i, label %_ZN2os5Linux12sched_getcpuEv.exit.thread.i, label %14

14:                                               ; preds = %_ZN2os5Linux12sched_getcpuEv.exit.i
  %15 = load ptr, ptr @_ZN2os5Linux12_cpu_to_nodeE, align 8
  %16 = icmp ne ptr %15, null
  %17 = icmp sgt i32 %13, -1
  %or.cond.i.i = and i1 %17, %16
  br i1 %or.cond.i.i, label %18, label %_ZN2os5Linux12sched_getcpuEv.exit.thread.i

18:                                               ; preds = %14
  %19 = load i32, ptr %15, align 4
  %20 = icmp sgt i32 %19, %13
  br i1 %20, label %_ZN2os5Linux15get_node_by_cpuEi.exit.i, label %_ZN2os5Linux12sched_getcpuEv.exit.thread.i

_ZN2os5Linux15get_node_by_cpuEi.exit.i:           ; preds = %18
  %21 = getelementptr inbounds i8, ptr %15, i64 8
  %22 = load ptr, ptr %21, align 8
  %23 = zext nneg i32 %13 to i64
  %24 = getelementptr inbounds i32, ptr %22, i64 %23
  %25 = load i32, ptr %24, align 4
  %.not7.i = icmp eq i32 %25, -1
  br i1 %.not7.i, label %_ZN2os5Linux12sched_getcpuEv.exit.thread.i, label %_ZN2os17numa_get_group_idEv.exit

_ZN2os5Linux12sched_getcpuEv.exit.thread.i:       ; preds = %_ZN2os5Linux15get_node_by_cpuEi.exit.i, %18, %14, %_ZN2os5Linux12sched_getcpuEv.exit.i, %11
  br label %_ZN2os17numa_get_group_idEv.exit

_ZN2os17numa_get_group_idEv.exit:                 ; preds = %_ZN2os5Linux15get_node_by_cpuEi.exit.i, %_ZN2os5Linux12sched_getcpuEv.exit.thread.i
  %.0.i = phi i32 [ 0, %_ZN2os5Linux12sched_getcpuEv.exit.thread.i ], [ %25, %_ZN2os5Linux15get_node_by_cpuEi.exit.i ]
  %26 = getelementptr inbounds i8, ptr %0, i64 840
  store i32 %.0.i, ptr %26, align 8
  br label %27

27:                                               ; preds = %_ZN2os17numa_get_group_idEv.exit, %1
  tail call void @_ZN12PosixSignals15hotspot_sigmaskEP6Thread(ptr noundef nonnull %0) #26
  tail call void @_ZN2os5Linux21init_thread_fpu_stateEv() #26
  %.not.i.i14 = icmp eq ptr %5, null
  br i1 %.not.i.i14, label %_ZN11MutexLockerC2EP5MutexNS0_18SafepointCheckFlagE.exit, label %28

28:                                               ; preds = %27
  tail call void @_ZN5Mutex28lock_without_safepoint_checkEv(ptr noundef nonnull align 8 dereferenceable(104) %5) #26
  br label %_ZN11MutexLockerC2EP5MutexNS0_18SafepointCheckFlagE.exit

_ZN11MutexLockerC2EP5MutexNS0_18SafepointCheckFlagE.exit: ; preds = %27, %28
  store volatile i32 1, ptr %3, align 8
  tail call void @_ZN7Monitor10notify_allEv(ptr noundef nonnull align 8 dereferenceable(104) %5) #26
  %29 = load volatile i32, ptr %3, align 8
  %30 = icmp eq i32 %29, 1
  br i1 %30, label %.lr.ph, label %_ZN11MutexLockerD2Ev.exit

.lr.ph:                                           ; preds = %_ZN11MutexLockerC2EP5MutexNS0_18SafepointCheckFlagE.exit, %.lr.ph
  %31 = tail call noundef zeroext i1 @_ZN7Monitor28wait_without_safepoint_checkEm(ptr noundef nonnull align 8 dereferenceable(104) %5, i64 noundef 0) #26
  %32 = load volatile i32, ptr %3, align 8
  %33 = icmp eq i32 %32, 1
  br i1 %33, label %.lr.ph, label %_ZN11MutexLockerD2Ev.exit, !llvm.loop !14

_ZN11MutexLockerD2Ev.exit:                        ; preds = %.lr.ph, %_ZN11MutexLockerC2EP5MutexNS0_18SafepointCheckFlagE.exit
  tail call void @_ZN5Mutex6unlockEv(ptr noundef nonnull align 8 dereferenceable(104) %5) #26
  %34 = load volatile ptr, ptr getelementptr inbounds (i8, ptr @_ZN16LogTagSetMappingILN6LogTag4typeE105ELS1_159ELS1_0ELS1_0ELS1_0ELS1_0EE7_tagsetE, i64 64), align 8
  %.not = icmp eq ptr %34, null
  br i1 %.not, label %39, label %35

35:                                               ; preds = %_ZN11MutexLockerD2Ev.exit
  %36 = tail call i64 (i64, ...) @syscall(i64 noundef 186) #26
  %sext.i16 = shl i64 %36, 32
  %37 = ashr exact i64 %sext.i16, 32
  %38 = tail call i64 @pthread_self() #28
  tail call void (ptr, ...) @_ZN7LogImplILN6LogTag4typeE105ELS1_159ELS1_0ELS1_0ELS1_0ELS1_0EE5writeILN8LogLevel4typeE3EEEvPKcz(ptr noundef nonnull @.str.280, i64 noundef %37, i64 noundef %38)
  br label %39

39:                                               ; preds = %_ZN11MutexLockerD2Ev.exit, %35
  tail call void @_ZN6Thread8call_runEv(ptr noundef nonnull align 8 dereferenceable(888) %0) #26
  %40 = load volatile ptr, ptr getelementptr inbounds (i8, ptr @_ZN16LogTagSetMappingILN6LogTag4typeE105ELS1_159ELS1_0ELS1_0ELS1_0ELS1_0EE7_tagsetE, i64 64), align 8
  %.not18 = icmp eq ptr %40, null
  br i1 %.not18, label %45, label %41

41:                                               ; preds = %39
  %42 = tail call i64 (i64, ...) @syscall(i64 noundef 186) #26
  %sext.i17 = shl i64 %42, 32
  %43 = ashr exact i64 %sext.i17, 32
  %44 = tail call i64 @pthread_self() #28
  tail call void (ptr, ...) @_ZN7LogImplILN6LogTag4typeE105ELS1_159ELS1_0ELS1_0ELS1_0ELS1_0EE5writeILN8LogLevel4typeE3EEEvPKcz(ptr noundef nonnull @.str.281, i64 noundef %43, i64 noundef %44)
  br label %45

45:                                               ; preds = %39, %41
  ret ptr null
}